target datalayout = "e-m:e-p270:32:32-p271:32:32-p272:64:64-i64:64-i128:128-f80:128-n8:16:32:64-S128"
target triple = "x86_64-pc-linux-gnu"

%struct.tls12_lookup = type { i32, i32 }

@tls12_sig = internal constant [2 x %struct.tls12_lookup] [%struct.tls12_lookup { i32 6, i32 1 }, %struct.tls12_lookup { i32 408, i32 3 }], align 16

; Function Attrs: nounwind uwtable
define internal i32 @tls12_find_id(i32 noundef %0, ptr noundef %1, i64 noundef %2) #0 {
  %4 = alloca i32, align 4
  %5 = alloca i32, align 4
  %6 = alloca ptr, align 8
  %7 = alloca i64, align 8
  %8 = alloca i64, align 8
  %9 = alloca i32, align 4
  store i32 %0, ptr %5, align 4, !tbaa !58
  store ptr %1, ptr %6, align 8, !tbaa !162
  store i64 %2, ptr %7, align 8, !tbaa !56
  call void @llvm.lifetime.start.p0(i64 8, ptr %8) #8
  store i64 0, ptr %8, align 8, !tbaa !56
  br label %10

10:                                               ; preds = %29, %3
  %11 = load i64, ptr %8, align 8, !tbaa !56
  %12 = load i64, ptr %7, align 8, !tbaa !56
  %13 = icmp ult i64 %11, %12
  br i1 %13, label %14, label %32

14:                                               ; preds = %10
  %15 = load ptr, ptr %6, align 8, !tbaa !162
  %16 = load i64, ptr %8, align 8, !tbaa !56
  %17 = getelementptr inbounds nuw %struct.tls12_lookup, ptr %15, i64 %16
  %18 = getelementptr inbounds nuw %struct.tls12_lookup, ptr %17, i32 0, i32 0
  %19 = load i32, ptr %18, align 4, !tbaa !163
  %20 = load i32, ptr %5, align 4, !tbaa !58
  %21 = icmp eq i32 %19, %20
  br i1 %21, label %22, label %28

22:                                               ; preds = %14
  %23 = load ptr, ptr %6, align 8, !tbaa !162
  %24 = load i64, ptr %8, align 8, !tbaa !56
  %25 = getelementptr inbounds nuw %struct.tls12_lookup, ptr %23, i64 %24
  %26 = getelementptr inbounds nuw %struct.tls12_lookup, ptr %25, i32 0, i32 1
  %27 = load i32, ptr %26, align 4, !tbaa !165
  store i32 %27, ptr %4, align 4
  store i32 1, ptr %9, align 4
  br label %33

28:                                               ; preds = %14
  br label %29

29:                                               ; preds = %28
  %30 = load i64, ptr %8, align 8, !tbaa !56
  %31 = add i64 %30, 1
  store i64 %31, ptr %8, align 8, !tbaa !56
  br label %10, !llvm.loop !166

32:                                               ; preds = %10
  store i32 -1, ptr %4, align 4
  store i32 1, ptr %9, align 4
  br label %33

33:                                               ; preds = %32, %22
  call void @llvm.lifetime.end.p0(i64 8, ptr %8) #8
  %34 = load i32, ptr %4, align 4
  ret i32 %34
}

; Function Attrs: nounwind uwtable
define hidden i32 @tls12_get_sigid(i32 noundef %0) #0 {
  %2 = alloca i32, align 4
  store i32 %0, ptr %2, align 4, !tbaa !58
  %3 = load i32, ptr %2, align 4, !tbaa !58
  %4 = call i32 @tls12_find_id(i32 noundef %3, ptr noundef @tls12_sig, i64 noundef 2)
  ret i32 %4
}