; Function Attrs: nofree norecurse nosync nounwind memory(none) uwtable
define hidden i32 @tls12_get_sigid(i32 noundef %0) local_unnamed_addr #8 {
  br label %2

2:                                                ; preds = %9, %1
  %.09.i = phi i64 [ 0, %1 ], [ %10, %9 ]
  %3 = getelementptr inbounds nuw %struct.tls12_lookup, ptr @tls12_sig, i64 %.09.i
  %4 = load i32, ptr %3, align 8, !tbaa !86
  %5 = icmp eq i32 %4, %0
  br i1 %5, label %6, label %9

6:                                                ; preds = %2
  %7 = getelementptr inbounds nuw %struct.tls12_lookup, ptr @tls12_sig, i64 %.09.i, i32 1
  %8 = load i32, ptr %7, align 4, !tbaa !89
  br label %tls12_find_id.exit

9:                                                ; preds = %2
  %10 = add nuw nsw i64 %.09.i, 1
  %exitcond.not.i = icmp eq i64 %10, 2
  br i1 %exitcond.not.i, label %tls12_find_id.exit, label %2, !llvm.loop !88

tls12_find_id.exit:                               ; preds = %9, %6
  %.08.i = phi i32 [ %8, %6 ], [ -1, %9 ]
  ret i32 %.08.i
}